target datalayout = "e-m:e-p270:32:32-p271:32:32-p272:64:64-i64:64-i128:128-f80:128-n8:16:32:64-S128"
target triple = "x86_64-unknown-linux-gnu"

%"class.icu_75::Formattable" = type { %"class.icu_75::UObject", %union.anon, ptr, ptr, i32, %"class.icu_75::UnicodeString" }
%"class.icu_75::UObject" = type { ptr }
%union.anon = type { %struct.anon }
%struct.anon = type { ptr, i32 }
%"class.icu_75::UnicodeString" = type { %"class.icu_75::Replaceable", %"union.icu_75::UnicodeString::StackBufferOrFields" }
%"class.icu_75::Replaceable" = type { %"class.icu_75::UObject" }
%"union.icu_75::UnicodeString::StackBufferOrFields" = type { %struct.anon.1, [32 x i8] }
%struct.anon.1 = type { i16, i32, i32, ptr }
%"class.icu_75::StringPiece" = type <{ ptr, i32, [4 x i8] }>

; Function Attrs: mustprogress uwtable
define void @_ZN6icu_7511Formattable20adoptDecimalQuantityEPNS_6number4impl15DecimalQuantityE(ptr noundef nonnull align 8 dereferenceable(112) %this, ptr noundef %dq) #1 align 2 {
entry:
  %this.addr = alloca ptr, align 8
  %dq.addr = alloca ptr, align 8
  store ptr %this, ptr %this.addr, align 8
  store ptr %dq, ptr %dq.addr, align 8
  %this1 = load ptr, ptr %this.addr, align 8
  %fDecimalQuantity = getelementptr inbounds %"class.icu_75::Formattable", ptr %this1, i32 0, i32 3
  %0 = load ptr, ptr %fDecimalQuantity, align 8
  %cmp = icmp ne ptr %0, null
  br i1 %cmp, label %if.then, label %if.end

if.then:                                          ; preds = %entry
  %fDecimalQuantity2 = getelementptr inbounds %"class.icu_75::Formattable", ptr %this1, i32 0, i32 3
  %1 = load ptr, ptr %fDecimalQuantity2, align 8
  %isnull = icmp eq ptr %1, null
  br i1 %isnull, label %delete.end, label %delete.notnull

delete.notnull:                                   ; preds = %if.then
  %vtable = load ptr, ptr %1, align 8
  %vfn = getelementptr inbounds ptr, ptr %vtable, i64 1
  %2 = load ptr, ptr %vfn, align 8
  call void %2(ptr noundef nonnull align 8 dereferenceable(66) %1) #10
  br label %delete.end

delete.end:                                       ; preds = %delete.notnull, %if.then
  br label %if.end

if.end:                                           ; preds = %delete.end, %entry
  %3 = load ptr, ptr %dq.addr, align 8
  %fDecimalQuantity3 = getelementptr inbounds %"class.icu_75::Formattable", ptr %this1, i32 0, i32 3
  store ptr %3, ptr %fDecimalQuantity3, align 8
  %4 = load ptr, ptr %dq.addr, align 8
  %cmp4 = icmp eq ptr %4, null
  br i1 %cmp4, label %if.then5, label %if.end6

if.then5:                                         ; preds = %if.end
  br label %if.end23

if.end6:                                          ; preds = %if.end
  %fDecimalQuantity7 = getelementptr inbounds %"class.icu_75::Formattable", ptr %this1, i32 0, i32 3
  %5 = load ptr, ptr %fDecimalQuantity7, align 8
  %call = call noundef zeroext i1 @_ZNK6icu_756number4impl15DecimalQuantity10fitsInLongEb(ptr noundef nonnull align 8 dereferenceable(66) %5, i1 noundef zeroext false)
  br i1 %call, label %if.then8, label %if.else18

if.then8:                                         ; preds = %if.end6
  %fDecimalQuantity9 = getelementptr inbounds %"class.icu_75::Formattable", ptr %this1, i32 0, i32 3
  %6 = load ptr, ptr %fDecimalQuantity9, align 8
  %call10 = call noundef i64 @_ZNK6icu_756number4impl15DecimalQuantity6toLongEb(ptr noundef nonnull align 8 dereferenceable(66) %6, i1 noundef zeroext false)
  %fValue = getelementptr inbounds %"class.icu_75::Formattable", ptr %this1, i32 0, i32 1
  store i64 %call10, ptr %fValue, align 8
  %fValue11 = getelementptr inbounds %"class.icu_75::Formattable", ptr %this1, i32 0, i32 1
  %7 = load i64, ptr %fValue11, align 8
  %cmp12 = icmp sle i64 %7, 2147483647
  br i1 %cmp12, label %land.lhs.true, label %if.else

land.lhs.true:                                    ; preds = %if.then8
  %fValue13 = getelementptr inbounds %"class.icu_75::Formattable", ptr %this1, i32 0, i32 1
  %8 = load i64, ptr %fValue13, align 8
  %cmp14 = icmp sge i64 %8, -2147483648
  br i1 %cmp14, label %if.then15, label %if.else

if.then15:                                        ; preds = %land.lhs.true
  %fType = getelementptr inbounds %"class.icu_75::Formattable", ptr %this1, i32 0, i32 4
  store i32 2, ptr %fType, align 8
  br label %if.end17

if.else:                                          ; preds = %land.lhs.true, %if.then8
  %fType16 = getelementptr inbounds %"class.icu_75::Formattable", ptr %this1, i32 0, i32 4
  store i32 5, ptr %fType16, align 8
  br label %if.end17

if.end17:                                         ; preds = %if.else, %if.then15
  br label %if.end23

if.else18:                                        ; preds = %if.end6
  %fType19 = getelementptr inbounds %"class.icu_75::Formattable", ptr %this1, i32 0, i32 4
  store i32 1, ptr %fType19, align 8
  %fDecimalQuantity20 = getelementptr inbounds %"class.icu_75::Formattable", ptr %this1, i32 0, i32 3
  %9 = load ptr, ptr %fDecimalQuantity20, align 8
  %call21 = call noundef double @_ZNK6icu_756number4impl15DecimalQuantity8toDoubleEv(ptr noundef nonnull align 8 dereferenceable(66) %9)
  %fValue22 = getelementptr inbounds %"class.icu_75::Formattable", ptr %this1, i32 0, i32 1
  store double %call21, ptr %fValue22, align 8
  br label %if.end23

if.end23:                                         ; preds = %if.else18, %if.end17, %if.then5
  ret void
}

; Function Attrs: mustprogress nounwind uwtable
define internal noundef signext i8 @_ZL9U_FAILURE10UErrorCode(i32 noundef %code) #0 {
entry:
  %code.addr = alloca i32, align 4
  store i32 %code, ptr %code.addr, align 4
  %0 = load i32, ptr %code.addr, align 4
  %cmp = icmp sgt i32 %0, 0
  %conv = zext i1 %cmp to i8
  ret i8 %conv
}

; Function Attrs: mustprogress uwtable
define void @_ZN6icu_7511Formattable16setDecimalNumberENS_11StringPieceER10UErrorCode(ptr noundef nonnull align 8 dereferenceable(112) %this, ptr %numberString.coerce0, i32 %numberString.coerce1, ptr noundef nonnull align 4 dereferenceable(4) %status) #1 align 2 personality ptr @__gxx_personality_v0 {
entry:
  %numberString = alloca %"class.icu_75::StringPiece", align 8
  %this.addr = alloca ptr, align 8
  %status.addr = alloca ptr, align 8
  %dq = alloca ptr, align 8
  %saved-rvalue = alloca ptr, align 8
  %cleanup.cond = alloca i1, align 1
  %exn.slot = alloca ptr, align 8
  %ehselector.slot = alloca i32, align 4
  %agg.tmp = alloca %"class.icu_75::StringPiece", align 8
  %0 = getelementptr inbounds { ptr, i32 }, ptr %numberString, i32 0, i32 0
  store ptr %numberString.coerce0, ptr %0, align 8
  %1 = getelementptr inbounds { ptr, i32 }, ptr %numberString, i32 0, i32 1
  store i32 %numberString.coerce1, ptr %1, align 8
  store ptr %this, ptr %this.addr, align 8
  store ptr %status, ptr %status.addr, align 8
  %this1 = load ptr, ptr %this.addr, align 8
  %2 = load ptr, ptr %status.addr, align 8
  %3 = load i32, ptr %2, align 4
  %call = call noundef signext i8 @_ZL9U_FAILURE10UErrorCode(i32 noundef %3)
  %tobool = icmp ne i8 %call, 0
  br i1 %tobool, label %if.then, label %if.end

if.then:                                          ; preds = %entry
  br label %return

if.end:                                           ; preds = %entry
  call void @_ZN6icu_7511Formattable7disposeEv(ptr noundef nonnull align 8 dereferenceable(112) %this1)
  %call2 = call noundef ptr @_ZN6icu_757UMemorynwEm(i64 noundef 72) #10
  %new.isnull = icmp eq ptr %call2, null
  store i1 false, ptr %cleanup.cond, align 1
  br i1 %new.isnull, label %new.cont, label %new.notnull

new.notnull:                                      ; preds = %if.end
  store ptr %call2, ptr %saved-rvalue, align 8
  store i1 true, ptr %cleanup.cond, align 1
  invoke void @_ZN6icu_756number4impl15DecimalQuantityC1Ev(ptr noundef nonnull align 8 dereferenceable(66) %call2)
          to label %invoke.cont unwind label %lpad

invoke.cont:                                      ; preds = %new.notnull
  br label %new.cont

new.cont:                                         ; preds = %invoke.cont, %if.end
  %4 = phi ptr [ %call2, %invoke.cont ], [ null, %if.end ]
  store ptr %4, ptr %dq, align 8
  %5 = load ptr, ptr %dq, align 8
  call void @llvm.memcpy.p0.p0.i64(ptr align 8 %agg.tmp, ptr align 8 %numberString, i64 16, i1 false)
  %6 = load ptr, ptr %status.addr, align 8
  %7 = getelementptr inbounds { ptr, i32 }, ptr %agg.tmp, i32 0, i32 0
  %8 = load ptr, ptr %7, align 8
  %9 = getelementptr inbounds { ptr, i32 }, ptr %agg.tmp, i32 0, i32 1
  %10 = load i32, ptr %9, align 8
  %call3 = call noundef nonnull align 8 dereferenceable(66) ptr @_ZN6icu_756number4impl15DecimalQuantity14setToDecNumberENS_11StringPieceER10UErrorCode(ptr noundef nonnull align 8 dereferenceable(66) %5, ptr %8, i32 %10, ptr noundef nonnull align 4 dereferenceable(4) %6)
  %11 = load ptr, ptr %dq, align 8
  call void @_ZN6icu_7511Formattable20adoptDecimalQuantityEPNS_6number4impl15DecimalQuantityE(ptr noundef nonnull align 8 dereferenceable(112) %this1, ptr noundef %11)
  br label %return

return:                                           ; preds = %new.cont, %if.then
  ret void

lpad:                                             ; preds = %new.notnull
  %12 = landingpad { ptr, i32 }
          cleanup
  %13 = extractvalue { ptr, i32 } %12, 0
  store ptr %13, ptr %exn.slot, align 8
  %14 = extractvalue { ptr, i32 } %12, 1
  store i32 %14, ptr %ehselector.slot, align 4
  %cleanup.is_active = load i1, ptr %cleanup.cond, align 1
  br i1 %cleanup.is_active, label %cleanup.action, label %cleanup.done

cleanup.action:                                   ; preds = %lpad
  %15 = load ptr, ptr %saved-rvalue, align 8
  call void @_ZN6icu_757UMemorydlEPv(ptr noundef %15) #10
  br label %cleanup.done

cleanup.done:                                     ; preds = %cleanup.action, %lpad
  br label %eh.resume

eh.resume:                                        ; preds = %cleanup.done
  %exn = load ptr, ptr %exn.slot, align 8
  %sel = load i32, ptr %ehselector.slot, align 4
  %lpad.val = insertvalue { ptr, i32 } poison, ptr %exn, 0
  %lpad.val4 = insertvalue { ptr, i32 } %lpad.val, i32 %sel, 1
  resume { ptr, i32 } %lpad.val4
}