; Function Attrs: mustprogress uwtable
define void @_ZN6icu_7511Formattable16setDecimalNumberENS_11StringPieceER10UErrorCode(ptr nocapture noundef nonnull align 8 dereferenceable(112) %this, ptr %numberString.coerce0, i32 %numberString.coerce1, ptr noundef nonnull align 4 dereferenceable(4) %status) local_unnamed_addr #1 align 2 personality ptr @__gxx_personality_v0 {
entry:
  %0 = load i32, ptr %status, align 4
  %cmp.i = icmp slt i32 %0, 1
  br i1 %cmp.i, label %if.end, label %return

if.end:                                           ; preds = %entry
  tail call void @_ZN6icu_7511Formattable7disposeEv(ptr noundef nonnull align 8 dereferenceable(112) %this)
  %call2 = tail call noundef ptr @_ZN6icu_757UMemorynwEm(i64 noundef 72) #16
  %new.isnull = icmp ne ptr %call2, null
  tail call void @llvm.assume(i1 %new.isnull)
  invoke void @_ZN6icu_756number4impl15DecimalQuantityC1Ev(ptr noundef nonnull align 8 dereferenceable(66) %call2)
          to label %new.cont unwind label %lpad

new.cont:                                         ; preds = %if.end
  %call3 = tail call noundef nonnull align 8 dereferenceable(66) ptr @_ZN6icu_756number4impl15DecimalQuantity14setToDecNumberENS_11StringPieceER10UErrorCode(ptr noundef nonnull align 8 dereferenceable(66) %call2, ptr %numberString.coerce0, i32 %numberString.coerce1, ptr noundef nonnull align 4 dereferenceable(4) %status)
  %fDecimalQuantity.i = getelementptr inbounds i8, ptr %this, i64 32
  %1 = load ptr, ptr %fDecimalQuantity.i, align 8
  %cmp.not.i = icmp eq ptr %1, null
  br i1 %cmp.not.i, label %if.end6.i, label %delete.notnull.i

delete.notnull.i:                                 ; preds = %new.cont
  %vtable.i = load ptr, ptr %1, align 8
  %vfn.i = getelementptr inbounds i8, ptr %vtable.i, i64 8
  %2 = load ptr, ptr %vfn.i, align 8
  tail call void %2(ptr noundef nonnull align 8 dereferenceable(66) %1) #16
  br label %if.end6.i

if.end6.i:                                        ; preds = %new.cont, %delete.notnull.i
  store ptr %call2, ptr %fDecimalQuantity.i, align 8
  %call.i = tail call noundef zeroext i1 @_ZNK6icu_756number4impl15DecimalQuantity10fitsInLongEb(ptr noundef nonnull align 8 dereferenceable(66) %call2, i1 noundef zeroext false)
  br i1 %call.i, label %if.then8.i, label %if.else18.i

if.then8.i:                                       ; preds = %if.end6.i
  %3 = load ptr, ptr %fDecimalQuantity.i, align 8
  %call10.i = tail call noundef i64 @_ZNK6icu_756number4impl15DecimalQuantity6toLongEb(ptr noundef nonnull align 8 dereferenceable(66) %3, i1 noundef zeroext false)
  %fValue.i = getelementptr inbounds i8, ptr %this, i64 8
  store i64 %call10.i, ptr %fValue.i, align 8
  %4 = add i64 %call10.i, 2147483648
  %or.cond.i = icmp ult i64 %4, 4294967296
  %fType.i = getelementptr inbounds i8, ptr %this, i64 40
  br i1 %or.cond.i, label %if.then15.i, label %if.else.i

if.then15.i:                                      ; preds = %if.then8.i
  store i32 2, ptr %fType.i, align 8
  br label %return

if.else.i:                                        ; preds = %if.then8.i
  store i32 5, ptr %fType.i, align 8
  br label %return

if.else18.i:                                      ; preds = %if.end6.i
  %fType19.i = getelementptr inbounds i8, ptr %this, i64 40
  store i32 1, ptr %fType19.i, align 8
  %5 = load ptr, ptr %fDecimalQuantity.i, align 8
  %call21.i = tail call noundef double @_ZNK6icu_756number4impl15DecimalQuantity8toDoubleEv(ptr noundef nonnull align 8 dereferenceable(66) %5)
  %fValue22.i = getelementptr inbounds i8, ptr %this, i64 8
  store double %call21.i, ptr %fValue22.i, align 8
  br label %return

return:                                           ; preds = %if.else18.i, %if.else.i, %if.then15.i, %entry
  ret void

lpad:                                             ; preds = %if.end
  %6 = landingpad { ptr, i32 }
          cleanup
  tail call void @_ZN6icu_757UMemorydlEPv(ptr noundef nonnull %call2) #16
  resume { ptr, i32 } %6
}